; Function Attrs: nounwind uwtable
define void @validateMultiQubitMatrixFitsInNode(ptr noundef readonly byval(%struct.Qureg) align 8 captures(none) %0, i32 noundef %1, ptr noundef %2) local_unnamed_addr #3 {
  %4 = getelementptr inbounds nuw i8, ptr %0, i64 16
  %5 = load i64, ptr %4, align 8, !tbaa !31
  %6 = zext nneg i32 %1 to i64
  %7 = shl nuw i64 1, %6
  %.not = icmp slt i64 %5, %7
  br i1 %.not, label %8, label %QuESTAssert.exit

8:                                                ; preds = %3
  tail call void @invalidQuESTInputError(ptr noundef nonnull @.str.48, ptr noundef %2)
  br label %QuESTAssert.exit

QuESTAssert.exit:                                 ; preds = %3, %8
  ret void
}